; Function Attrs: mustprogress uwtable
define noundef nonnull align 8 dereferenceable(64) ptr @_ZN6icu_7513MessageFormat6formatERKNS_13UnicodeStringEPKNS_11FormattableEiRS1_R10UErrorCode(ptr noundef nonnull align 8 dereferenceable(64) %pattern, ptr noundef %arguments, i32 noundef %cnt, ptr noundef nonnull returned align 8 dereferenceable(64) %appendTo, ptr noundef nonnull align 4 dereferenceable(4) %success) local_unnamed_addr #1 align 2 personality ptr @__gxx_personality_v0 {
entry:
  %usapp.i = alloca %"class.icu_75::UnicodeStringAppendable", align 8
  %app.i = alloca %"class.icu_75::AppendableWrapper", align 8
  %temp = alloca %"class.icu_75::MessageFormat", align 8
  call void @_ZN6icu_7513MessageFormatC1ERKNS_13UnicodeStringER10UErrorCode(ptr noundef nonnull align 8 dereferenceable(816) %temp, ptr noundef nonnull align 8 dereferenceable(64) %pattern, ptr noundef nonnull align 4 dereferenceable(4) %success)
  call void @llvm.lifetime.start.p0(i64 16, ptr nonnull %usapp.i)
  call void @llvm.lifetime.start.p0(i64 16, ptr nonnull %app.i)
  %0 = load i32, ptr %success, align 4
  %cmp.i.i = icmp slt i32 %0, 1
  br i1 %cmp.i.i, label %if.end.i, label %invoke.cont

if.end.i:                                         ; preds = %entry
  store ptr getelementptr inbounds ({ [10 x ptr] }, ptr @_ZTVN6icu_7523UnicodeStringAppendableE, i64 0, i32 0, i64 2), ptr %usapp.i, align 8
  %str.i.i = getelementptr inbounds i8, ptr %usapp.i, i64 8
  store ptr %appendTo, ptr %str.i.i, align 8
  store ptr %usapp.i, ptr %app.i, align 8
  %len.i.i = getelementptr inbounds i8, ptr %app.i, i64 8
  store i32 0, ptr %len.i.i, align 8
  invoke void @_ZNK6icu_7513MessageFormat6formatEiPKvPKNS_11FormattableEPKNS_13UnicodeStringEiRNS_17AppendableWrapperEPNS_13FieldPositionER10UErrorCode(ptr noundef nonnull align 8 dereferenceable(816) %temp, i32 noundef 0, ptr noundef null, ptr noundef %arguments, ptr noundef null, i32 noundef %cnt, ptr noundef nonnull align 8 dereferenceable(12) %app.i, ptr noundef null, ptr noundef nonnull align 4 dereferenceable(4) %success)
          to label %invoke.cont2.i unwind label %lpad.i

invoke.cont2.i:                                   ; preds = %if.end.i
  call void @_ZN6icu_7523UnicodeStringAppendableD1Ev(ptr noundef nonnull align 8 dereferenceable(16) %usapp.i) #19
  br label %invoke.cont

lpad.i:                                           ; preds = %if.end.i
  %1 = landingpad { ptr, i32 }
          cleanup
  call void @_ZN6icu_7523UnicodeStringAppendableD1Ev(ptr noundef nonnull align 8 dereferenceable(16) %usapp.i) #19
  call void @_ZN6icu_7513MessageFormatD1Ev(ptr noundef nonnull align 8 dereferenceable(816) %temp) #19
  resume { ptr, i32 } %1

invoke.cont:                                      ; preds = %invoke.cont2.i, %entry
  call void @llvm.lifetime.end.p0(i64 16, ptr nonnull %usapp.i)
  call void @llvm.lifetime.end.p0(i64 16, ptr nonnull %app.i)
  call void @_ZN6icu_7513MessageFormatD1Ev(ptr noundef nonnull align 8 dereferenceable(816) %temp) #19
  ret ptr %appendTo
}